target datalayout = "e-m:e-p270:32:32-p271:32:32-p272:64:64-i64:64-i128:128-f80:128-n8:16:32:64-S128"
target triple = "x86_64-pc-linux-gnu"

%struct.nstime_t = type { i64, i32 }
%struct._packet_info = type { ptr, ptr, i32, i32, %struct.nstime_t, %struct.nstime_t, %struct.nstime_t, i8, ptr, ptr, ptr, ptr, %struct._address, %struct._address, %struct._address, %struct._address, %struct._address, %struct._address, i32, ptr, i8, [3 x i8], %struct.anon, i32, i32, i32, i32, ptr, i8, ptr, ptr, i16, i16, i32, i32, i16, i32, i32, ptr, ptr, ptr, i8, i8, i16, i16, i16, i32, i16, i16, ptr, ptr, ptr, ptr, ptr, i32, i32 }
%struct._address = type { i32, i32, ptr, ptr }
%struct.anon = type { i8, [3 x i8] }

@hf_pfcp_application_id = internal global i32 0, align 4
@hf_pfcp_application_id_str = internal global i32 0, align 4
@.str.2654 = private unnamed_addr constant [3 x i8] c"%s\00", align 1

; Function Attrs: null_pointer_is_valid sspstrong uwtable
define internal void @dissect_pfcp_application_id(ptr noundef %0, ptr noundef %1, ptr noundef %2, ptr noundef %3, i16 noundef zeroext %4, i8 noundef zeroext %5, ptr noundef %6) #0 {
  %8 = alloca ptr, align 8
  %9 = alloca ptr, align 8
  %10 = alloca ptr, align 8
  %11 = alloca ptr, align 8
  %12 = alloca i16, align 2
  %13 = alloca i8, align 1
  %14 = alloca ptr, align 8
  %15 = alloca i32, align 4
  %16 = alloca ptr, align 8
  store ptr %0, ptr %8, align 8
  store ptr %1, ptr %9, align 8
  store ptr %2, ptr %10, align 8
  store ptr %3, ptr %11, align 8
  store i16 %4, ptr %12, align 2
  store i8 %5, ptr %13, align 1
  store ptr %6, ptr %14, align 8
  call void @llvm.lifetime.start.p0(i64 4, ptr %15) #13
  store i32 0, ptr %15, align 4
  %17 = load ptr, ptr %8, align 8
  %18 = load i32, ptr %15, align 4
  %19 = load i16, ptr %12, align 2
  %20 = zext i16 %19 to i32
  %21 = call zeroext i1 @tvb_ascii_isprint(ptr noundef %17, i32 noundef %18, i32 noundef %20)
  br i1 %21, label %22, label %35

22:                                               ; preds = %7
  call void @llvm.lifetime.start.p0(i64 8, ptr %16) #13
  %23 = load ptr, ptr %10, align 8
  %24 = load i32, ptr @hf_pfcp_application_id_str, align 4
  %25 = load ptr, ptr %8, align 8
  %26 = load i32, ptr %15, align 4
  %27 = load i16, ptr %12, align 2
  %28 = zext i16 %27 to i32
  %29 = load ptr, ptr %9, align 8
  %30 = getelementptr inbounds nuw %struct._packet_info, ptr %29, i32 0, i32 51
  %31 = load ptr, ptr %30, align 8
  %32 = call ptr @proto_tree_add_item_ret_string(ptr noundef %23, i32 noundef %24, ptr noundef %25, i32 noundef %26, i32 noundef %28, i32 noundef 0, ptr noundef %31, ptr noundef %16)
  %33 = load ptr, ptr %11, align 8
  %34 = load ptr, ptr %16, align 8
  call void (ptr, ptr, ...) @proto_item_append_text(ptr noundef %33, ptr noundef @.str.2654, ptr noundef %34)
  call void @llvm.lifetime.end.p0(i64 8, ptr %16) #13
  br label %43

35:                                               ; preds = %7
  %36 = load ptr, ptr %10, align 8
  %37 = load i32, ptr @hf_pfcp_application_id, align 4
  %38 = load ptr, ptr %8, align 8
  %39 = load i32, ptr %15, align 4
  %40 = load i16, ptr %12, align 2
  %41 = zext i16 %40 to i32
  %42 = call ptr @proto_tree_add_item(ptr noundef %36, i32 noundef %37, ptr noundef %38, i32 noundef %39, i32 noundef %41, i32 noundef 0)
  br label %43

43:                                               ; preds = %35, %22
  call void @llvm.lifetime.end.p0(i64 4, ptr %15) #13
  ret void
}