; Function Attrs: null_pointer_is_valid sspstrong uwtable
define internal void @dissect_pfcp_application_id(ptr noundef %0, ptr noundef readonly captures(none) %1, ptr noundef %2, ptr noundef %3, i16 noundef zeroext %4, i8 zeroext %5, ptr readnone captures(none) %6) #0 {
  %8 = alloca ptr, align 8
  %9 = zext i16 %4 to i32
  %10 = tail call zeroext i1 @tvb_ascii_isprint(ptr noundef %0, i32 noundef 0, i32 noundef %9)
  br i1 %10, label %11, label %17

11:                                               ; preds = %7
  call void @llvm.lifetime.start.p0(i64 8, ptr nonnull %8) #15
  %12 = load i32, ptr @hf_pfcp_application_id_str, align 4
  %13 = getelementptr inbounds nuw i8, ptr %1, i64 408
  %14 = load ptr, ptr %13, align 8
  %15 = call ptr @proto_tree_add_item_ret_string(ptr noundef %2, i32 noundef %12, ptr noundef %0, i32 noundef 0, i32 noundef %9, i32 noundef 0, ptr noundef %14, ptr noundef nonnull %8)
  %16 = load ptr, ptr %8, align 8
  call void (ptr, ptr, ...) @proto_item_append_text(ptr noundef %3, ptr noundef nonnull @.str.2654, ptr noundef %16)
  call void @llvm.lifetime.end.p0(i64 8, ptr nonnull %8) #15
  br label %20

17:                                               ; preds = %7
  %18 = load i32, ptr @hf_pfcp_application_id, align 4
  %19 = tail call ptr @proto_tree_add_item(ptr noundef %2, i32 noundef %18, ptr noundef %0, i32 noundef 0, i32 noundef %9, i32 noundef 0)
  br label %20

20:                                               ; preds = %17, %11
  ret void
}